Certificate:
    Data:
        Version: 3 (0x2)
        Serial Number:
            37:bc:b4:30:dc:82:b6:3b:d2:94:6b:8e:ea:dc:00:81:1b:ab:d0:90
        Signature Algorithm: sha256WithRSAEncryption
        Issuer: O=Universidade de Bras\xC3\xADlia, C=BR, CN=UnB Sub CA
        Validity
            Not Before: Jan 15 01:20:02 2025 GMT
            Not After : Jan 15 01:20:02 2027 GMT
        Subject: O=Universidade de Bras\xC3\xADlia, C=BR, CN=John
        Subject Public Key Info:
            Public Key Algorithm: rsaEncryption
                Public-Key: (2048 bit)
                Modulus:
                    00:96:8f:de:80:ad:92:79:f9:02:4c:14:7f:c7:36:
                    47:f4:81:e7:66:dd:0a:9b:ad:34:39:c2:36:c7:c6:
                    58:27:5c:17:37:5d:83:00:8f:1c:ba:13:e4:6c:1f:
                    02:8f:e4:3d:8c:97:19:8c:be:fd:fe:71:e1:ef:fe:
                    ac:4e:0e:a1:4e:f4:45:12:9e:5a:1b:cf:c0:ac:dd:
                    90:f0:54:97:01:a6:e3:9a:80:23:38:44:35:3f:5f:
                    25:f2:1c:9c:cb:61:53:1a:36:c9:b7:68:c8:5d:0b:
                    df:4b:41:cc:07:68:b8:a8:35:aa:32:c7:a3:9c:75:
                    3b:08:6b:5d:d0:95:d9:29:6f:b5:c5:7f:e7:47:cc:
                    2f:b5:8d:28:80:cc:99:a5:b9:17:7b:e4:3e:5d:68:
                    c4:57:a5:aa:1f:fc:32:4c:af:5b:c0:a2:cf:f8:42:
                    57:05:fa:10:f1:2a:72:90:55:b6:97:c1:a1:a5:e7:
                    cc:2b:38:97:f7:c8:dd:ee:20:09:ad:f6:0e:c4:8d:
                    7d:70:10:44:37:c8:31:d0:73:67:3a:c9:60:b2:13:
                    82:cc:04:89:14:d0:62:b9:d4:42:aa:b4:54:bc:0c:
                    cc:70:b3:e1:77:34:f8:19:18:8a:c9:c6:0f:ac:fb:
                    a3:b3:ec:a0:ed:6d:05:ea:1b:72:7c:ae:e8:81:82:
                    89:3f
                Exponent: 65537 (0x10001)
        X509v3 extensions:
            X509v3 Key Usage: critical
                Digital Signature, Key Encipherment
            X509v3 Basic Constraints: 
                CA:FALSE
            X509v3 Extended Key Usage: 
                E-mail Protection, TLS Web Client Authentication
            X509v3 Subject Key Identifier: 
                85:48:66:9E:84:16:13:49:16:0A:DA:E7:4F:80:1F:77:16:BA:98:AC
            X509v3 Authority Key Identifier: 
                A0:DE:F6:0C:AB:46:B5:0B:14:B8:F5:A7:96:B1:97:FB:AB:0E:C0:21
    Signature Algorithm: sha256WithRSAEncryption
    Signature Value:
        9b:f0:3f:58:f8:97:e6:27:f4:1a:a9:4b:fc:70:88:01:1b:0c:
        fc:ac:1d:88:7a:17:43:58:f4:6a:1e:a7:d2:2c:82:10:0a:a5:
        57:70:9d:c2:19:ee:be:40:c8:70:3b:37:77:9e:62:44:ac:00:
        e5:3b:f1:f4:80:aa:b1:28:03:0f:17:6b:7b:25:2b:04:eb:d6:
        51:04:4b:99:7e:0a:2f:cb:8d:bf:2a:16:7a:17:dd:d1:5d:90:
        31:d0:a7:63:af:0d:a3:50:a8:48:a6:41:6a:3b:97:f5:aa:0e:
        cf:a2:01:88:58:11:f8:d5:4a:53:f2:f6:5d:5c:d2:3f:7e:a2:
        36:e4:68:4f:30:0c:8d:a6:01:73:1b:21:08:ba:f7:8c:c0:07:
        b1:9c:1e:7a:06:88:54:1d:b4:25:11:cb:65:92:a5:51:01:3c:
        cb:c1:18:22:b3:22:8f:e4:51:c4:d8:d2:f0:c3:33:1b:cc:51:
        bc:ae:a2:9c:ae:8f:ff:ef:08:c8:06:63:14:d8:42:8e:db:8e:
        c8:d2:28:8c:f4:92:77:f2:43:28:48:61:51:1d:3c:ef:5d:e9:
        56:29:50:95:d1:0e:7d:b7:bf:26:9d:4a:ea:d1:55:58:3c:68:
        51:35:eb:1d:68:68:38:68:ea:dc:fb:bb:c4:88:a2:22:9a:53:
        17:79:19:68
-----BEGIN CERTIFICATE-----
MIIDkDCCAnigAwIBAgIUN7y0MNyCtjvSlGuO6twAgRur0JAwDQYJKoZIhvcNAQEL
BQAwRjEiMCAGA1UECgwZVW5pdmVyc2lkYWRlIGRlIEJyYXPDrWxpYTELMAkGA1UE
BhMCQlIxEzARBgNVBAMMClVuQiBTdWIgQ0EwHhcNMjUwMTE1MDEyMDAyWhcNMjcw
MTE1MDEyMDAyWjBAMSIwIAYDVQQKDBlVbml2ZXJzaWRhZGUgZGUgQnJhc8OtbGlh
MQswCQYDVQQGEwJCUjENMAsGA1UEAwwESm9objCCASIwDQYJKoZIhvcNAQEBBQAD
ggEPADCCAQoCggEBAJaP3oCtknn5AkwUf8c2R/SB52bdCputNDnCNsfGWCdcFzdd
gwCPHLoT5GwfAo/kPYyXGYy+/f5x4e/+rE4OoU70RRKeWhvPwKzdkPBUlwGm45qA
IzhENT9fJfIcnMthUxo2ybdoyF0L30tBzAdouKg1qjLHo5x1OwhrXdCV2SlvtcV/
50fML7WNKIDMmaW5F3vkPl1oxFelqh/8MkyvW8Ciz/hCVwX6EPEqcpBVtpfBoaXn
zCs4l/fI3e4gCa32DsSNfXAQRDfIMdBzZzrJYLITgswEiRTQYrnUQqq0VLwMzHCz
4Xc0+BkYisnGD6z7o7PsoO1tBeobcnyu6IGCiT8CAwEAAaN8MHowDgYDVR0PAQH/
BAQDAgWgMAkGA1UdEwQCMAAwHQYDVR0lBBYwFAYIKwYBBQUHAwQGCCsGAQUFBwMC
MB0GA1UdDgQWBBSFSGaehBYTSRYK2udPgB93FrqYrDAfBgNVHSMEGDAWgBSg3vYM
q0a1CxS49aeWsZf7qw7AITANBgkqhkiG9w0BAQsFAAOCAQEAm/A/WPiX5if0GqlL
/HCIARsM/KwdiHoXQ1j0ah6n0iyCEAqlV3CdwhnuvkDIcDs3d55iRKwA5Tvx9ICq
sSgDDxdreyUrBOvWUQRLmX4KL8uNvyoWehfd0V2QMdCnY68No1CoSKZBajuX9aoO
z6IBiFgR+NVKU/L2XVzSP36iNuRoTzAMjaYBcxshCLr3jMAHsZweegaIVB20JRHL
ZZKlUQE8y8EYIrMij+RRxNjS8MMzG8xRvK6inK6P/+8IyAZjFNhCjtuOyNIojPSS
d/JDKEhhUR08713pVilQldEOfbe/Jp1K6tFVWDxoUTXrHWhoOGjq3Pu7xIiiIppT
F3kZaA==
-----END CERTIFICATE-----
