Certificate:
    Data:
        Version: 3 (0x2)
        Serial Number:
            3a:fa:bf:29:ab:a4:e6:13:43:8a:8e:41:ae:3f:0d:e2:47:9e:f3:34
        Signature Algorithm: sha256WithRSAEncryption
        Issuer: O=Universidade de Bras\xC3\xADlia, C=BR, CN=UnB Sub CA
        Validity
            Not Before: Jan 15 03:45:30 2025 GMT
            Not After : Jan 15 03:45:30 2027 GMT
        Subject: O=Universidade de Bras\xC3\xADlia, C=BR, CN=Sidney Fernando
        Subject Public Key Info:
            Public Key Algorithm: rsaEncryption
                Public-Key: (2048 bit)
                Modulus:
                    00:d2:63:81:3d:ed:92:4e:9f:58:d5:e9:6c:16:05:
                    ce:b3:4b:a1:16:e8:05:a4:5f:76:5f:05:fa:83:41:
                    b1:ca:05:7a:76:fb:78:c6:46:4e:5b:5c:ca:44:a2:
                    75:98:46:64:84:1b:fe:2e:50:bb:f2:63:4f:6b:b6:
                    4a:7c:6c:4d:8b:d4:d7:e5:67:c9:4e:cd:15:48:8a:
                    c8:d8:07:8a:b4:82:f2:25:1a:54:73:01:e4:45:21:
                    32:39:c8:4e:21:b9:ff:6d:7a:94:23:41:38:90:51:
                    4e:de:e1:8c:da:91:ff:10:83:6c:19:08:a2:af:ae:
                    a8:69:9e:a7:df:e9:54:72:f2:17:40:95:b0:24:a8:
                    ea:09:65:4e:63:d7:7e:83:53:e7:99:7a:ad:9f:b3:
                    e9:49:66:a6:1a:cf:15:20:3b:b6:b3:af:60:7b:1c:
                    dc:f2:fd:f1:6c:32:11:47:04:cf:b2:ab:5a:5c:0a:
                    2c:f5:ee:65:2b:23:52:a9:bb:72:c8:99:c1:21:55:
                    39:d4:ca:27:6a:62:bd:b4:f6:95:72:aa:b8:85:2a:
                    42:a1:d9:cf:98:3d:e8:03:f2:6a:b7:56:e0:92:3c:
                    a2:b5:20:72:d4:b2:25:56:25:ce:b7:cd:bd:07:11:
                    c1:fb:aa:93:f8:d1:82:56:82:cd:c2:16:c5:ef:ed:
                    bb:07
                Exponent: 65537 (0x10001)
        X509v3 extensions:
            X509v3 Key Usage: critical
                Digital Signature, Key Encipherment
            X509v3 Basic Constraints: 
                CA:FALSE
            X509v3 Extended Key Usage: 
                E-mail Protection, TLS Web Client Authentication
            X509v3 Subject Key Identifier: 
                17:77:73:0C:E5:58:D7:8B:A9:DA:EC:3A:B0:A8:B4:EF:72:F6:B8:FF
            X509v3 Authority Key Identifier: 
                A0:DE:F6:0C:AB:46:B5:0B:14:B8:F5:A7:96:B1:97:FB:AB:0E:C0:21
    Signature Algorithm: sha256WithRSAEncryption
    Signature Value:
        ae:46:a8:f5:de:3f:b3:9a:45:2c:49:5c:2b:1a:a1:d9:1f:42:
        7e:b2:08:d5:a7:a3:4c:d8:d6:12:19:db:37:25:1f:ea:87:12:
        66:6c:5a:4a:f8:c4:75:f8:92:45:cc:8a:71:9a:62:77:7f:3c:
        d7:20:63:84:00:83:95:64:f3:81:1f:e9:e1:37:d3:4e:8f:a4:
        48:ec:ae:48:aa:19:6f:88:70:7b:3b:3e:72:fd:0f:01:ef:fe:
        af:f8:75:72:dc:4a:f7:5b:08:11:8e:c2:a2:4c:94:f5:6c:13:
        9d:5c:6c:e7:77:04:2c:1f:4e:70:e2:73:3e:52:74:ee:41:61:
        22:b9:43:34:e9:ff:3f:c8:a1:17:5c:33:02:75:80:cd:e5:73:
        4c:fa:c2:fc:81:f8:cc:61:f2:24:1d:8a:b0:78:2f:2c:89:ee:
        9c:5d:ea:84:70:a9:02:7c:5f:75:61:82:01:e3:01:5b:b4:07:
        13:55:38:1e:57:02:2a:3b:67:d5:da:80:35:da:b2:28:a8:29:
        66:5e:ef:61:02:57:b9:af:c3:9a:de:49:a5:57:6c:05:c8:10:
        a5:c6:0d:ab:55:81:27:87:21:6d:9a:bc:e6:fc:3b:49:fa:b4:
        aa:39:40:0c:3f:0b:ad:07:64:39:99:43:83:74:b4:29:3e:5d:
        15:8f:20:9d
-----BEGIN CERTIFICATE-----
MIIDmzCCAoOgAwIBAgIUOvq/Kauk5hNDio5Brj8N4kee8zQwDQYJKoZIhvcNAQEL
BQAwRjEiMCAGA1UECgwZVW5pdmVyc2lkYWRlIGRlIEJyYXPDrWxpYTELMAkGA1UE
BhMCQlIxEzARBgNVBAMMClVuQiBTdWIgQ0EwHhcNMjUwMTE1MDM0NTMwWhcNMjcw
MTE1MDM0NTMwWjBLMSIwIAYDVQQKDBlVbml2ZXJzaWRhZGUgZGUgQnJhc8OtbGlh
MQswCQYDVQQGEwJCUjEYMBYGA1UEAwwPU2lkbmV5IEZlcm5hbmRvMIIBIjANBgkq
hkiG9w0BAQEFAAOCAQ8AMIIBCgKCAQEA0mOBPe2STp9Y1elsFgXOs0uhFugFpF92
XwX6g0GxygV6dvt4xkZOW1zKRKJ1mEZkhBv+LlC78mNPa7ZKfGxNi9TX5WfJTs0V
SIrI2AeKtILyJRpUcwHkRSEyOchOIbn/bXqUI0E4kFFO3uGM2pH/EINsGQiir66o
aZ6n3+lUcvIXQJWwJKjqCWVOY9d+g1PnmXqtn7PpSWamGs8VIDu2s69gexzc8v3x
bDIRRwTPsqtaXAos9e5lKyNSqbtyyJnBIVU51MonamK9tPaVcqq4hSpCodnPmD3o
A/Jqt1bgkjyitSBy1LIlViXOt829BxHB+6qT+NGCVoLNwhbF7+27BwIDAQABo3ww
ejAOBgNVHQ8BAf8EBAMCBaAwCQYDVR0TBAIwADAdBgNVHSUEFjAUBggrBgEFBQcD
BAYIKwYBBQUHAwIwHQYDVR0OBBYEFBd3cwzlWNeLqdrsOrCotO9y9rj/MB8GA1Ud
IwQYMBaAFKDe9gyrRrULFLj1p5axl/urDsAhMA0GCSqGSIb3DQEBCwUAA4IBAQCu
Rqj13j+zmkUsSVwrGqHZH0J+sgjVp6NM2NYSGds3JR/qhxJmbFpK+MR1+JJFzIpx
mmJ3fzzXIGOEAIOVZPOBH+nhN9NOj6RI7K5IqhlviHB7Oz5y/Q8B7/6v+HVy3Er3
WwgRjsKiTJT1bBOdXGzndwQsH05w4nM+UnTuQWEiuUM06f8/yKEXXDMCdYDN5XNM
+sL8gfjMYfIkHYqweC8sie6cXeqEcKkCfF91YYIB4wFbtAcTVTgeVwIqO2fV2oA1
2rIoqClmXu9hAle5r8Oa3kmlV2wFyBClxg2rVYEnhyFtmrzm/DtJ+rSqOUAMPwut
B2Q5mUODdLQpPl0VjyCd
-----END CERTIFICATE-----
