Certificate:
    Data:
        Version: 3 (0x2)
        Serial Number:
            52:0e:b3:ed:5d:49:fb:11:16:b4:83:0a:80:51:eb:0b:99:f2:2e:47
        Signature Algorithm: sha256WithRSAEncryption
        Issuer: O=Universidade de Bras\xC3\xADlia, C=BR, CN=UnB Root CA
        Validity
            Not Before: Jan 15 00:44:50 2025 GMT
            Not After : Jan 15 00:44:50 2035 GMT
        Subject: O=Universidade de Bras\xC3\xADlia, C=BR, CN=UnB Root CA
        Subject Public Key Info:
            Public Key Algorithm: rsaEncryption
                Public-Key: (2048 bit)
                Modulus:
                    00:89:ac:ec:1a:7f:b5:85:74:c8:d2:6c:b6:e0:5b:
                    51:82:9e:42:b7:8a:82:8e:96:17:96:47:8d:56:a3:
                    08:10:80:f3:ba:21:ca:d6:3f:82:b7:01:72:cd:4e:
                    0e:9c:8f:61:8c:e1:5f:13:50:6c:57:d0:db:d2:0c:
                    c7:66:50:7c:64:25:0d:44:1d:ec:49:f0:ad:d3:21:
                    7d:76:38:26:e3:b2:0a:06:00:00:6d:17:27:cf:21:
                    31:7d:9d:92:8e:b6:c8:60:3b:36:3a:77:28:86:58:
                    12:62:f3:f9:70:62:f2:f7:b3:76:71:00:b7:64:03:
                    82:15:0b:2d:d8:a7:17:36:46:fa:b1:17:66:d3:41:
                    1b:39:f2:c1:e6:e8:41:0d:ae:e6:ad:28:82:79:28:
                    d7:bc:17:8b:3a:25:c5:b9:30:8d:39:ea:d3:25:24:
                    53:08:8e:00:22:e8:ef:db:3b:61:94:46:25:e9:e0:
                    0b:e5:f1:20:57:76:f6:00:b6:bc:ae:83:bd:a7:f0:
                    7d:64:dc:55:25:8f:93:22:3a:1b:cd:b4:b7:a9:4b:
                    81:72:49:c1:ac:42:bb:19:e2:7d:02:e5:80:1d:ab:
                    0d:fe:2c:4d:dd:b7:1a:1f:d7:69:38:bb:f4:bd:d9:
                    09:bc:4c:26:76:eb:f2:e7:8f:02:6c:a2:01:f6:15:
                    31:bd
                Exponent: 65537 (0x10001)
        X509v3 extensions:
            X509v3 Key Usage: critical
                Certificate Sign, CRL Sign
            X509v3 Basic Constraints: critical
                CA:TRUE
            X509v3 Subject Key Identifier: 
                86:27:29:8E:91:7A:CB:18:9E:9E:56:18:41:7E:0B:BE:E2:7B:62:8F
            X509v3 Authority Key Identifier: 
                86:27:29:8E:91:7A:CB:18:9E:9E:56:18:41:7E:0B:BE:E2:7B:62:8F
    Signature Algorithm: sha256WithRSAEncryption
    Signature Value:
        26:a7:06:d9:fb:d6:8c:18:4a:75:aa:89:d1:c5:3f:29:49:0e:
        03:c5:97:77:ec:db:41:41:58:b9:85:31:6e:9d:f8:8f:88:81:
        24:75:98:61:94:ca:5a:b1:68:c5:50:19:20:50:cc:52:d9:a5:
        2b:81:43:f3:9c:e1:62:3c:1a:82:15:3c:61:c4:80:d3:cb:0d:
        7b:d1:57:a3:5c:45:4a:f7:93:92:47:0b:c0:50:35:e4:74:6f:
        94:cc:c6:69:ec:08:ac:ef:56:63:93:57:94:fd:a1:36:42:0f:
        0d:a9:3e:cf:ff:79:59:77:f9:c1:7c:7e:f8:c7:2d:af:d5:91:
        35:ae:2a:d5:db:52:04:33:9f:ac:b3:91:0b:64:96:05:9e:25:
        73:27:45:d6:17:db:0e:62:f1:58:ec:9e:56:0d:88:2e:c3:fb:
        7c:f3:41:4c:c2:79:2a:88:b5:e0:00:dd:da:d7:ce:73:40:33:
        c5:d0:35:e1:6e:33:16:b5:be:68:9a:77:7a:25:e6:b1:f1:27:
        69:61:2b:a3:4e:0c:91:c6:cd:0a:07:60:7d:83:c0:6e:69:e2:
        e4:c9:a4:8e:c3:df:e3:34:e2:c6:73:e0:4e:3b:5f:e1:c5:07:
        dd:d5:d2:3f:80:fc:5a:05:c3:bd:42:d3:78:0a:3e:6b:b6:ba:
        a9:6d:c3:54
-----BEGIN CERTIFICATE-----
MIIDfzCCAmegAwIBAgIUUg6z7V1J+xEWtIMKgFHrC5nyLkcwDQYJKoZIhvcNAQEL
BQAwRzEiMCAGA1UECgwZVW5pdmVyc2lkYWRlIGRlIEJyYXPDrWxpYTELMAkGA1UE
BhMCQlIxFDASBgNVBAMMC1VuQiBSb290IENBMB4XDTI1MDExNTAwNDQ1MFoXDTM1
MDExNTAwNDQ1MFowRzEiMCAGA1UECgwZVW5pdmVyc2lkYWRlIGRlIEJyYXPDrWxp
YTELMAkGA1UEBhMCQlIxFDASBgNVBAMMC1VuQiBSb290IENBMIIBIjANBgkqhkiG
9w0BAQEFAAOCAQ8AMIIBCgKCAQEAiazsGn+1hXTI0my24FtRgp5Ct4qCjpYXlkeN
VqMIEIDzuiHK1j+CtwFyzU4OnI9hjOFfE1BsV9Db0gzHZlB8ZCUNRB3sSfCt0yF9
djgm47IKBgAAbRcnzyExfZ2SjrbIYDs2OncohlgSYvP5cGLy97N2cQC3ZAOCFQst
2KcXNkb6sRdm00EbOfLB5uhBDa7mrSiCeSjXvBeLOiXFuTCNOerTJSRTCI4AIujv
2zthlEYl6eAL5fEgV3b2ALa8roO9p/B9ZNxVJY+TIjobzbS3qUuBcknBrEK7GeJ9
AuWAHasN/ixN3bcaH9dpOLv0vdkJvEwmduvy548CbKIB9hUxvQIDAQABo2MwYTAO
BgNVHQ8BAf8EBAMCAQYwDwYDVR0TAQH/BAUwAwEB/zAdBgNVHQ4EFgQUhicpjpF6
yxienlYYQX4LvuJ7Yo8wHwYDVR0jBBgwFoAUhicpjpF6yxienlYYQX4LvuJ7Yo8w
DQYJKoZIhvcNAQELBQADggEBACanBtn71owYSnWqidHFPylJDgPFl3fs20FBWLmF
MW6d+I+IgSR1mGGUylqxaMVQGSBQzFLZpSuBQ/Oc4WI8GoIVPGHEgNPLDXvRV6Nc
RUr3k5JHC8BQNeR0b5TMxmnsCKzvVmOTV5T9oTZCDw2pPs//eVl3+cF8fvjHLa/V
kTWuKtXbUgQzn6yzkQtklgWeJXMnRdYX2w5i8VjsnlYNiC7D+3zzQUzCeSqIteAA
3drXznNAM8XQNeFuMxa1vmiad3ol5rHxJ2lhK6NODJHGzQoHYH2DwG5p4uTJpI7D
3+M04sZz4E47X+HFB93V0j+A/FoFw71C03gKPmu2uqltw1Q=
-----END CERTIFICATE-----
