Certificate:
    Data:
        Version: 3 (0x2)
        Serial Number:
            52:e5:05:de:f2:96:b9:b3:54:19:35:88:98:9f:92:a3:f8:df:46:c0
        Signature Algorithm: sha256WithRSAEncryption
        Issuer: O=Universidade de Bras\xC3\xADlia, C=BR, CN=UnB Root CA
        Validity
            Not Before: Jan 15 00:45:02 2025 GMT
            Not After : Jan 15 00:45:02 2035 GMT
        Subject: O=Universidade de Bras\xC3\xADlia, C=BR, CN=UnB Sub CA
        Subject Public Key Info:
            Public Key Algorithm: rsaEncryption
                Public-Key: (2048 bit)
                Modulus:
                    00:d4:00:13:75:96:35:90:0c:0e:2c:12:25:18:91:
                    1c:9b:e2:2e:88:30:6a:0d:53:3c:db:d4:cd:80:66:
                    02:62:94:32:47:58:17:88:cc:db:d5:6f:7a:12:b5:
                    ee:a0:d2:a6:19:20:8a:a5:e4:b3:e2:c0:04:76:8f:
                    1c:40:b5:bb:57:3d:4f:a9:b5:4e:9f:4b:3f:de:d3:
                    4a:48:59:fc:60:d0:a1:de:40:56:96:53:63:43:0e:
                    03:c0:1f:97:60:2f:cc:0e:cf:79:0c:64:b2:87:88:
                    73:dc:fc:88:6d:04:c8:ef:a3:45:0c:c8:2a:5b:85:
                    5f:0c:61:f8:11:66:82:8c:ee:4e:48:cd:80:ca:d6:
                    c0:37:d1:a9:62:39:2b:03:2b:15:f9:8b:98:1f:3e:
                    28:32:92:fb:81:97:49:78:c1:e1:cb:7c:e3:69:85:
                    93:99:10:7b:d6:d1:1b:f6:33:27:59:4a:fe:2c:d8:
                    ab:46:d7:8a:13:45:64:cb:8f:99:03:d5:56:63:50:
                    1e:4d:0b:fa:ca:d9:6c:28:ff:27:44:30:20:83:26:
                    f6:d5:34:b5:ed:41:41:04:39:8b:58:e3:30:70:4c:
                    14:4f:7e:dc:00:96:94:a5:71:ca:0a:b6:b6:b5:92:
                    d3:8d:b0:91:12:28:f0:e7:46:5d:d1:8e:a4:27:dd:
                    8f:35
                Exponent: 65537 (0x10001)
        X509v3 extensions:
            X509v3 Key Usage: critical
                Certificate Sign, CRL Sign
            X509v3 Basic Constraints: critical
                CA:TRUE, pathlen:0
            X509v3 Subject Key Identifier: 
                A0:DE:F6:0C:AB:46:B5:0B:14:B8:F5:A7:96:B1:97:FB:AB:0E:C0:21
            X509v3 Authority Key Identifier: 
                86:27:29:8E:91:7A:CB:18:9E:9E:56:18:41:7E:0B:BE:E2:7B:62:8F
    Signature Algorithm: sha256WithRSAEncryption
    Signature Value:
        73:09:a0:e8:10:88:40:2a:ba:ce:fa:23:ee:57:e1:34:9c:64:
        8f:1a:1d:26:02:3e:f9:0d:c9:aa:5f:69:b4:99:1f:d1:9c:19:
        0d:b9:48:5b:b3:cb:25:b1:4b:fe:e1:38:2a:00:05:ef:18:3e:
        5c:0d:6e:9f:e2:b8:78:16:c9:d1:6f:9d:8b:3b:5a:20:aa:7f:
        11:fc:b8:1d:75:89:c9:5d:7d:49:cd:f3:9c:66:d6:14:7d:52:
        19:e1:bc:70:e8:9d:8c:96:6a:45:80:cd:e0:87:be:b2:d8:8d:
        56:fc:11:dc:37:d4:26:91:60:fd:be:11:35:78:31:52:8b:dd:
        33:58:1e:80:f3:db:06:a8:29:93:01:aa:48:5b:4f:a8:d9:00:
        e2:e1:27:b2:42:bc:d4:98:89:ba:0b:df:e7:fa:a9:27:8e:d6:
        6f:68:0d:3a:7e:5d:ef:ec:95:90:43:74:9d:85:fb:87:90:31:
        a8:db:d8:73:2b:35:b5:18:95:5b:c5:a0:7a:af:5c:96:d6:7f:
        9a:9b:81:28:d9:01:21:3c:94:2e:c5:b1:c6:6c:a2:74:8d:71:
        12:58:19:f8:e6:ad:1b:c3:cf:fa:14:d7:e0:17:40:0c:88:ae:
        68:15:1c:e3:bf:35:6d:e1:af:70:e2:e5:24:5b:0f:1d:b1:04:
        3d:d0:ab:4a
-----BEGIN CERTIFICATE-----
MIIDgTCCAmmgAwIBAgIUUuUF3vKWubNUGTWImJ+So/jfRsAwDQYJKoZIhvcNAQEL
BQAwRzEiMCAGA1UECgwZVW5pdmVyc2lkYWRlIGRlIEJyYXPDrWxpYTELMAkGA1UE
BhMCQlIxFDASBgNVBAMMC1VuQiBSb290IENBMB4XDTI1MDExNTAwNDUwMloXDTM1
MDExNTAwNDUwMlowRjEiMCAGA1UECgwZVW5pdmVyc2lkYWRlIGRlIEJyYXPDrWxp
YTELMAkGA1UEBhMCQlIxEzARBgNVBAMMClVuQiBTdWIgQ0EwggEiMA0GCSqGSIb3
DQEBAQUAA4IBDwAwggEKAoIBAQDUABN1ljWQDA4sEiUYkRyb4i6IMGoNUzzb1M2A
ZgJilDJHWBeIzNvVb3oSte6g0qYZIIql5LPiwAR2jxxAtbtXPU+ptU6fSz/e00pI
Wfxg0KHeQFaWU2NDDgPAH5dgL8wOz3kMZLKHiHPc/IhtBMjvo0UMyCpbhV8MYfgR
ZoKM7k5IzYDK1sA30aliOSsDKxX5i5gfPigykvuBl0l4weHLfONphZOZEHvW0Rv2
MydZSv4s2KtG14oTRWTLj5kD1VZjUB5NC/rK2Wwo/ydEMCCDJvbVNLXtQUEEOYtY
4zBwTBRPftwAlpSlccoKtra1ktONsJESKPDnRl3RjqQn3Y81AgMBAAGjZjBkMA4G
A1UdDwEB/wQEAwIBBjASBgNVHRMBAf8ECDAGAQH/AgEAMB0GA1UdDgQWBBSg3vYM
q0a1CxS49aeWsZf7qw7AITAfBgNVHSMEGDAWgBSGJymOkXrLGJ6eVhhBfgu+4nti
jzANBgkqhkiG9w0BAQsFAAOCAQEAcwmg6BCIQCq6zvoj7lfhNJxkjxodJgI++Q3J
ql9ptJkf0ZwZDblIW7PLJbFL/uE4KgAF7xg+XA1un+K4eBbJ0W+diztaIKp/Efy4
HXWJyV19Sc3znGbWFH1SGeG8cOidjJZqRYDN4Ie+stiNVvwR3DfUJpFg/b4RNXgx
UovdM1gegPPbBqgpkwGqSFtPqNkA4uEnskK81JiJugvf5/qpJ47Wb2gNOn5d7+yV
kEN0nYX7h5AxqNvYcys1tRiVW8Wgeq9cltZ/mpuBKNkBITyULsWxxmyidI1xElgZ
+OatG8PP+hTX4BdADIiuaBUc4781beGvcOLlJFsPHbEEPdCrSg==
-----END CERTIFICATE-----
